; Function Attrs: null_pointer_is_valid sspstrong uwtable
define internal void @free_sequence_table_entry_data(ptr noundef captures(none) %0) #0 {
  %2 = getelementptr inbounds nuw i8, ptr %0, i64 24
  %3 = load ptr, ptr %2, align 8
  %.not = icmp eq ptr %3, null
  br i1 %.not, label %5, label %4

4:                                                ; preds = %1
  tail call void @g_list_free(ptr noundef nonnull %3)
  store ptr null, ptr %2, align 8
  br label %5

5:                                                ; preds = %4, %1
  ret void
}